; Function Attrs: mustprogress uwtable
define hidden void @_ZN4cvc58internal13preprocessing6passes7BVGauss18get_bv_const_valueENS0_12NodeTemplateILb1EEE(ptr dead_on_unwind noalias writable sret(%"class.cvc5::internal::Integer") align 8 %0, ptr noundef nonnull align 8 dereferenceable(64) %1, ptr noundef readonly captures(none) %2) local_unnamed_addr #3 align 2 personality ptr @__gxx_personality_v0 {
  %4 = alloca %"class.cvc5::internal::NodeTemplate.0", align 8
  %5 = alloca %"class.cvc5::internal::NodeTemplate", align 8
  %6 = alloca %"class.cvc5::internal::NodeTemplate", align 8
  call void @llvm.lifetime.start.p0(i64 8, ptr nonnull %5) #19
  %7 = load ptr, ptr %2, align 8, !tbaa !3
  store ptr %7, ptr %6, align 8, !tbaa !3
  %8 = load i64, ptr %7, align 8
  %9 = lshr i64 %8, 40
  %10 = trunc nuw nsw i64 %9 to i32
  %11 = and i32 %10, 1048575
  %12 = icmp samesign ult i32 %11, 1048574
  br i1 %12, label %13, label %18, !prof !12

13:                                               ; preds = %3
  %14 = add i64 %8, 1099511627776
  %15 = and i64 %14, 1152920405095219200
  %16 = and i64 %8, -1152920405095219201
  %17 = or disjoint i64 %15, %16
  store i64 %17, ptr %7, align 8
  br label %_ZN4cvc58internal12NodeTemplateILb1EEC2ERKS2_.exit

18:                                               ; preds = %3
  %19 = icmp eq i32 %11, 1048574
  br i1 %19, label %20, label %_ZN4cvc58internal12NodeTemplateILb1EEC2ERKS2_.exit, !prof !11

20:                                               ; preds = %18
  %21 = or i64 %8, 1152920405095219200
  store i64 %21, ptr %7, align 8
  tail call void @_ZN4cvc58internal4expr9NodeValue20markRefCountMaxedOutEv(ptr noundef nonnull align 8 dereferenceable(24) %7)
  br label %_ZN4cvc58internal12NodeTemplateILb1EEC2ERKS2_.exit

_ZN4cvc58internal12NodeTemplateILb1EEC2ERKS2_.exit: ; preds = %13, %18, %20
  call void @llvm.lifetime.start.p0(i64 8, ptr nonnull %4)
  store ptr %7, ptr %4, align 8, !tbaa !9, !noalias !13
  invoke void @_ZNK4cvc58internal6EnvObj7rewriteENS0_12NodeTemplateILb0EEE(ptr dead_on_unwind nonnull writable sret(%"class.cvc5::internal::NodeTemplate") align 8 %5, ptr noundef nonnull align 8 dereferenceable(64) %1, ptr noundef nonnull %4)
          to label %22 unwind label %52

22:                                               ; preds = %_ZN4cvc58internal12NodeTemplateILb1EEC2ERKS2_.exit
  call void @llvm.lifetime.end.p0(i64 8, ptr nonnull %4)
  %23 = load ptr, ptr %5, align 8, !tbaa !3
  %24 = invoke noundef nonnull align 8 dereferenceable(24) ptr @_ZNK4cvc58internal4expr9NodeValue8getConstINS0_9BitVectorEEERKT_v(ptr noundef nonnull align 8 dereferenceable(24) %23)
          to label %_ZNK4cvc58internal12NodeTemplateILb1EE8getConstINS0_9BitVectorEEERKT_v.exit unwind label %54

_ZNK4cvc58internal12NodeTemplateILb1EE8getConstINS0_9BitVectorEEERKT_v.exit: ; preds = %22
  %25 = invoke noundef nonnull align 8 dereferenceable(16) ptr @_ZNK4cvc58internal9BitVector8getValueEv(ptr noundef nonnull align 8 dereferenceable(24) %24)
          to label %26 unwind label %54

26:                                               ; preds = %_ZNK4cvc58internal12NodeTemplateILb1EE8getConstINS0_9BitVectorEEERKT_v.exit
  invoke void @__gmpz_init_set(ptr noundef nonnull align 8 dereferenceable(16) %0, ptr noundef nonnull align 8 dereferenceable(16) %25)
          to label %_ZN4cvc58internal7IntegerC2ERKS1_.exit unwind label %54

_ZN4cvc58internal7IntegerC2ERKS1_.exit:           ; preds = %26
  %27 = load ptr, ptr %5, align 8, !tbaa !3
  %28 = load i64, ptr %27, align 8
  %29 = and i64 %28, 1152920405095219200
  %.not.i.i = icmp eq i64 %29, 1152920405095219200
  br i1 %.not.i.i, label %_ZN4cvc58internal12NodeTemplateILb1EED2Ev.exit, label %30, !prof !11

30:                                               ; preds = %_ZN4cvc58internal7IntegerC2ERKS1_.exit
  %31 = add i64 %28, 1152920405095219200
  %32 = and i64 %31, 1152920405095219200
  %33 = and i64 %28, -1152920405095219201
  %34 = or disjoint i64 %32, %33
  store i64 %34, ptr %27, align 8
  %35 = icmp eq i64 %32, 0
  br i1 %35, label %36, label %_ZN4cvc58internal12NodeTemplateILb1EED2Ev.exit, !prof !11

36:                                               ; preds = %30
  invoke void @_ZN4cvc58internal4expr9NodeValue15markForDeletionEv(ptr noundef nonnull align 8 dereferenceable(24) %27)
          to label %_ZN4cvc58internal12NodeTemplateILb1EED2Ev.exit unwind label %37

37:                                               ; preds = %36
  %38 = landingpad { ptr, i32 }
          catch ptr null
  %39 = extractvalue { ptr, i32 } %38, 0
  call void @__clang_call_terminate(ptr %39) #20
  unreachable

_ZN4cvc58internal12NodeTemplateILb1EED2Ev.exit:   ; preds = %_ZN4cvc58internal7IntegerC2ERKS1_.exit, %30, %36
  %40 = load i64, ptr %7, align 8
  %41 = and i64 %40, 1152920405095219200
  %.not.i.i4 = icmp eq i64 %41, 1152920405095219200
  br i1 %.not.i.i4, label %_ZN4cvc58internal12NodeTemplateILb1EED2Ev.exit5, label %42, !prof !11

42:                                               ; preds = %_ZN4cvc58internal12NodeTemplateILb1EED2Ev.exit
  %43 = add i64 %40, 1152920405095219200
  %44 = and i64 %43, 1152920405095219200
  %45 = and i64 %40, -1152920405095219201
  %46 = or disjoint i64 %44, %45
  store i64 %46, ptr %7, align 8
  %47 = icmp eq i64 %44, 0
  br i1 %47, label %48, label %_ZN4cvc58internal12NodeTemplateILb1EED2Ev.exit5, !prof !11

48:                                               ; preds = %42
  invoke void @_ZN4cvc58internal4expr9NodeValue15markForDeletionEv(ptr noundef nonnull align 8 dereferenceable(24) %7)
          to label %_ZN4cvc58internal12NodeTemplateILb1EED2Ev.exit5 unwind label %49

49:                                               ; preds = %48
  %50 = landingpad { ptr, i32 }
          catch ptr null
  %51 = extractvalue { ptr, i32 } %50, 0
  call void @__clang_call_terminate(ptr %51) #20
  unreachable

_ZN4cvc58internal12NodeTemplateILb1EED2Ev.exit5:  ; preds = %_ZN4cvc58internal12NodeTemplateILb1EED2Ev.exit, %42, %48
  call void @llvm.lifetime.end.p0(i64 8, ptr nonnull %5) #19
  ret void

52:                                               ; preds = %_ZN4cvc58internal12NodeTemplateILb1EEC2ERKS2_.exit
  %53 = landingpad { ptr, i32 }
          cleanup
  br label %56

54:                                               ; preds = %26, %22, %_ZNK4cvc58internal12NodeTemplateILb1EE8getConstINS0_9BitVectorEEERKT_v.exit
  %55 = landingpad { ptr, i32 }
          cleanup
  call void @_ZN4cvc58internal12NodeTemplateILb1EED2Ev(ptr noundef nonnull align 8 dereferenceable(8) %5) #19
  br label %56

56:                                               ; preds = %54, %52
  %.pn = phi { ptr, i32 } [ %55, %54 ], [ %53, %52 ]
  call void @_ZN4cvc58internal12NodeTemplateILb1EED2Ev(ptr noundef nonnull align 8 dereferenceable(8) %6) #19
  call void @llvm.lifetime.end.p0(i64 8, ptr nonnull %5) #19
  resume { ptr, i32 } %.pn
}